target datalayout = "e-m:e-p270:32:32-p271:32:32-p272:64:64-i64:64-i128:128-f80:128-n8:16:32:64-S128"
target triple = "x86_64-pc-linux-gnu"

%struct._object = type { %union.anon, ptr }
%union.anon = type { i64 }
%struct.Py_complex = type { double, double }
%struct.PyComplexObject = type { %struct._object, %struct.Py_complex }
%struct.anon = type { i32, i32 }

; Function Attrs: alwaysinline nounwind uwtable
define internal void @Py_INCREF(ptr noundef %0) #8 {
  %2 = alloca ptr, align 8
  %3 = alloca i32, align 4
  %4 = alloca i32, align 4
  store ptr %0, ptr %2, align 8, !tbaa !16
  call void @llvm.lifetime.start.p0(i64 4, ptr %3) #9
  %5 = load ptr, ptr %2, align 8, !tbaa !16
  %6 = getelementptr inbounds nuw %struct._object, ptr %5, i32 0, i32 0
  %7 = getelementptr inbounds nuw %struct.anon, ptr %6, i32 0, i32 0
  %8 = load i32, ptr %7, align 8, !tbaa !32
  store i32 %8, ptr %3, align 4, !tbaa !12
  %9 = load i32, ptr %3, align 4, !tbaa !12
  %10 = icmp slt i32 %9, 0
  br i1 %10, label %11, label %12

11:                                               ; preds = %1
  store i32 1, ptr %4, align 4
  br label %18

12:                                               ; preds = %1
  %13 = load i32, ptr %3, align 4, !tbaa !12
  %14 = add i32 %13, 1
  %15 = load ptr, ptr %2, align 8, !tbaa !16
  %16 = getelementptr inbounds nuw %struct._object, ptr %15, i32 0, i32 0
  %17 = getelementptr inbounds nuw %struct.anon, ptr %16, i32 0, i32 0
  store i32 %14, ptr %17, align 8, !tbaa !32
  store i32 0, ptr %4, align 4
  br label %18

18:                                               ; preds = %12, %11
  call void @llvm.lifetime.end.p0(i64 4, ptr %3) #9
  %19 = load i32, ptr %4, align 4
  switch i32 %19, label %21 [
    i32 0, label %20
    i32 1, label %20
  ]

20:                                               ; preds = %18, %18
  ret void

21:                                               ; preds = %18
  unreachable
}

; Function Attrs: inlinehint nounwind uwtable
define internal void @Py_SET_TYPE(ptr noundef %0, ptr noundef %1) #6 {
  %3 = alloca ptr, align 8
  %4 = alloca ptr, align 8
  store ptr %0, ptr %3, align 8, !tbaa !16
  store ptr %1, ptr %4, align 8, !tbaa !18
  %5 = load ptr, ptr %4, align 8, !tbaa !18
  %6 = load ptr, ptr %3, align 8, !tbaa !16
  %7 = getelementptr inbounds nuw %struct._object, ptr %6, i32 0, i32 1
  store ptr %5, ptr %7, align 8, !tbaa !40
  ret void
}

; Function Attrs: inlinehint nounwind uwtable
define internal void @_PyObject_Init(ptr noundef %0, ptr noundef %1) #6 {
  %3 = alloca ptr, align 8
  %4 = alloca ptr, align 8
  store ptr %0, ptr %3, align 8, !tbaa !16
  store ptr %1, ptr %4, align 8, !tbaa !18
  %5 = load ptr, ptr %3, align 8, !tbaa !16
  %6 = load ptr, ptr %4, align 8, !tbaa !18
  call void @Py_SET_TYPE(ptr noundef %5, ptr noundef %6)
  %7 = load ptr, ptr %4, align 8, !tbaa !18
  call void @Py_INCREF(ptr noundef %7)
  %8 = load ptr, ptr %3, align 8, !tbaa !16
  call void @_Py_NewReference(ptr noundef %8)
  ret void
}

; Function Attrs: nounwind uwtable
define dso_local ptr @PyComplex_FromCComplex(double %0, double %1) #0 {
  %3 = alloca ptr, align 8
  %4 = alloca %struct.Py_complex, align 8
  %5 = alloca ptr, align 8
  %6 = alloca i32, align 4
  %7 = getelementptr inbounds nuw { double, double }, ptr %4, i32 0, i32 0
  store double %0, ptr %7, align 8
  %8 = getelementptr inbounds nuw { double, double }, ptr %4, i32 0, i32 1
  store double %1, ptr %8, align 8
  call void @llvm.lifetime.start.p0(i64 8, ptr %5) #9
  %9 = call ptr @PyObject_Malloc(i64 noundef 32)
  store ptr %9, ptr %5, align 8, !tbaa !14
  %10 = load ptr, ptr %5, align 8, !tbaa !14
  %11 = icmp eq ptr %10, null
  br i1 %11, label %12, label %14

12:                                               ; preds = %2
  %13 = call ptr @PyErr_NoMemory()
  store ptr %13, ptr %3, align 8
  store i32 1, ptr %6, align 4
  br label %19

14:                                               ; preds = %2
  %15 = load ptr, ptr %5, align 8, !tbaa !14
  call void @_PyObject_Init(ptr noundef %15, ptr noundef @PyComplex_Type)
  %16 = load ptr, ptr %5, align 8, !tbaa !14
  %17 = getelementptr inbounds nuw %struct.PyComplexObject, ptr %16, i32 0, i32 1
  call void @llvm.memcpy.p0.p0.i64(ptr align 8 %17, ptr align 8 %4, i64 16, i1 false), !tbaa.struct !11
  %18 = load ptr, ptr %5, align 8, !tbaa !14
  store ptr %18, ptr %3, align 8
  store i32 1, ptr %6, align 4
  br label %19

19:                                               ; preds = %14, %12
  call void @llvm.lifetime.end.p0(i64 8, ptr %5) #9
  %20 = load ptr, ptr %3, align 8
  ret ptr %20
}

; Function Attrs: nounwind uwtable
define internal ptr @complex_neg(ptr noundef %0) #0 {
  %2 = alloca ptr, align 8
  %3 = alloca ptr, align 8
  %4 = alloca %struct.Py_complex, align 8
  store ptr %0, ptr %2, align 8, !tbaa !16
  call void @llvm.lifetime.start.p0(i64 8, ptr %3) #9
  %5 = load ptr, ptr %2, align 8, !tbaa !16
  store ptr %5, ptr %3, align 8, !tbaa !14
  call void @llvm.lifetime.start.p0(i64 16, ptr %4) #9
  %6 = load ptr, ptr %3, align 8, !tbaa !14
  %7 = getelementptr inbounds nuw %struct.PyComplexObject, ptr %6, i32 0, i32 1
  %8 = getelementptr inbounds nuw %struct.Py_complex, ptr %7, i32 0, i32 0
  %9 = load double, ptr %8, align 8, !tbaa !20
  %10 = fneg double %9
  %11 = getelementptr inbounds nuw %struct.Py_complex, ptr %4, i32 0, i32 0
  store double %10, ptr %11, align 8, !tbaa !4
  %12 = load ptr, ptr %3, align 8, !tbaa !14
  %13 = getelementptr inbounds nuw %struct.PyComplexObject, ptr %12, i32 0, i32 1
  %14 = getelementptr inbounds nuw %struct.Py_complex, ptr %13, i32 0, i32 1
  %15 = load double, ptr %14, align 8, !tbaa !33
  %16 = fneg double %15
  %17 = getelementptr inbounds nuw %struct.Py_complex, ptr %4, i32 0, i32 1
  store double %16, ptr %17, align 8, !tbaa !9
  %18 = getelementptr inbounds nuw { double, double }, ptr %4, i32 0, i32 0
  %19 = load double, ptr %18, align 8
  %20 = getelementptr inbounds nuw { double, double }, ptr %4, i32 0, i32 1
  %21 = load double, ptr %20, align 8
  %22 = call ptr @PyComplex_FromCComplex(double %19, double %21)
  call void @llvm.lifetime.end.p0(i64 16, ptr %4) #9
  call void @llvm.lifetime.end.p0(i64 8, ptr %3) #9
  ret ptr %22
}