; Function Attrs: nounwind uwtable
define internal ptr @complex_neg(ptr noundef readonly captures(none) %0) #9 {
  %2 = getelementptr inbounds nuw i8, ptr %0, i64 16
  %3 = load double, ptr %2, align 8, !tbaa !15
  %4 = fneg double %3
  %5 = getelementptr inbounds nuw i8, ptr %0, i64 24
  %6 = load double, ptr %5, align 8, !tbaa !33
  %7 = fneg double %6
  %8 = tail call ptr @PyObject_Malloc(i64 noundef 32) #16
  %9 = icmp eq ptr %8, null
  br i1 %9, label %10, label %12

10:                                               ; preds = %1
  %11 = tail call ptr @PyErr_NoMemory() #16
  br label %PyComplex_FromCComplex.exit

12:                                               ; preds = %1
  %13 = getelementptr inbounds nuw i8, ptr %8, i64 8
  store ptr @PyComplex_Type, ptr %13, align 8, !tbaa !8
  %14 = load i32, ptr @PyComplex_Type, align 8, !tbaa !12
  %15 = icmp slt i32 %14, 0
  br i1 %15, label %_PyObject_Init.exit.i, label %16

16:                                               ; preds = %12
  %17 = add nuw i32 %14, 1
  store i32 %17, ptr @PyComplex_Type, align 8, !tbaa !12
  br label %_PyObject_Init.exit.i

_PyObject_Init.exit.i:                            ; preds = %16, %12
  tail call void @_Py_NewReference(ptr noundef nonnull %8) #16
  %18 = getelementptr inbounds nuw i8, ptr %8, i64 16
  store double %4, ptr %18, align 8, !tbaa !13
  %.sroa.2.0..sroa_idx.i = getelementptr inbounds nuw i8, ptr %8, i64 24
  store double %7, ptr %.sroa.2.0..sroa_idx.i, align 8, !tbaa !13
  br label %PyComplex_FromCComplex.exit

PyComplex_FromCComplex.exit:                      ; preds = %10, %_PyObject_Init.exit.i
  %.0.i = phi ptr [ %11, %10 ], [ %8, %_PyObject_Init.exit.i ]
  ret ptr %.0.i
}